target datalayout = "e-m:e-p270:32:32-p271:32:32-p272:64:64-i64:64-i128:128-f80:128-n8:16:32:64-S128"
target triple = "x86_64-pc-linux-gnu"

@.str = private unnamed_addr constant [37 x i8] c"PRTE ERROR: %s in file %s at line %d\00", align 1
@.str.1 = private unnamed_addr constant [22 x i8] c"odls_default_module.c\00", align 1

; Function Attrs: nounwind uwtable
define internal i32 @prte_odls_default_kill_local_procs(ptr noundef %0) #1 {
  %2 = alloca i32, align 4
  %3 = alloca ptr, align 8
  %4 = alloca i32, align 4
  %5 = alloca i32, align 4
  store ptr %0, ptr %3, align 8, !tbaa !31
  call void @llvm.lifetime.start.p0(i64 4, ptr %4) #13
  %6 = load ptr, ptr %3, align 8, !tbaa !31
  %7 = call i32 @prte_odls_base_default_kill_local_procs(ptr noundef %6, ptr noundef @odls_default_kill_local)
  store i32 %7, ptr %4, align 4, !tbaa !8
  %8 = icmp ne i32 0, %7
  br i1 %8, label %9, label %20

9:                                                ; preds = %1
  br label %10

10:                                               ; preds = %9
  %11 = load i32, ptr %4, align 4, !tbaa !8
  %12 = icmp ne i32 -43, %11
  br i1 %12, label %13, label %16

13:                                               ; preds = %10
  %14 = load i32, ptr %4, align 4, !tbaa !8
  %15 = call ptr @prte_strerror(i32 noundef %14)
  call void (i32, ptr, ...) @pmix_output(i32 noundef 0, ptr noundef @.str, ptr noundef %15, ptr noundef @.str.1, i32 noundef 206)
  br label %16

16:                                               ; preds = %13, %10
  br label %17

17:                                               ; preds = %16
  br label %18

18:                                               ; preds = %17
  %19 = load i32, ptr %4, align 4, !tbaa !8
  store i32 %19, ptr %2, align 4
  store i32 1, ptr %5, align 4
  br label %21

20:                                               ; preds = %1
  store i32 0, ptr %2, align 4
  store i32 1, ptr %5, align 4
  br label %21

21:                                               ; preds = %20, %18
  call void @llvm.lifetime.end.p0(i64 4, ptr %4) #13
  %22 = load i32, ptr %2, align 4
  ret i32 %22
}