; Function Attrs: nounwind uwtable
define internal noundef i32 @prte_odls_default_kill_local_procs(ptr noundef %0) #1 {
  %2 = tail call i32 @prte_odls_base_default_kill_local_procs(ptr noundef %0, ptr noundef nonnull @odls_default_kill_local) #16
  switch i32 %2, label %3 [
    i32 0, label %5
    i32 -43, label %5
  ]

3:                                                ; preds = %1
  %4 = tail call ptr @prte_strerror(i32 noundef %2) #16
  tail call void (i32, ptr, ...) @pmix_output(i32 noundef 0, ptr noundef nonnull @.str, ptr noundef %4, ptr noundef nonnull @.str.1, i32 noundef 206) #16
  br label %5

5:                                                ; preds = %1, %3, %1
  ret i32 %2
}